target datalayout = "e-m:e-p270:32:32-p271:32:32-p272:64:64-i64:64-i128:128-f80:128-n8:16:32:64-S128"
target triple = "x86_64-pc-linux-gnu"

%struct.nstime_t = type { i64, i32 }

@hf_afp_file_attribute = internal global i32 0, align 4
@hf_afp_did = internal global i32 0, align 4
@hf_afp_creation_date = internal global i32 0, align 4
@hf_afp_modification_date = internal global i32 0, align 4
@hf_afp_backup_date = internal global i32 0, align 4
@hf_afp_finder_info = internal global i32 0, align 4
@hf_afp_short_name_offset = internal global i32 0, align 4
@hf_afp_file_id = internal global i32 0, align 4
@hf_afp_file_DataForkLen = internal global i32 0, align 4
@hf_afp_file_RsrcForkLen = internal global i32 0, align 4
@hf_afp_file_ExtDataForkLen = internal global i32 0, align 4
@hf_afp_file_ExtRsrcForkLen = internal global i32 0, align 4
@ett_afp_file_attribute = internal global i32 0, align 4

; Function Attrs: null_pointer_is_valid sspstrong uwtable
define internal void @print_date(ptr noundef %0, i32 noundef %1, ptr noundef %2, i32 noundef %3) #1 {
  %5 = alloca ptr, align 8
  %6 = alloca i32, align 4
  %7 = alloca ptr, align 8
  %8 = alloca i32, align 4
  %9 = alloca i64, align 8
  %10 = alloca %struct.nstime_t, align 8
  store ptr %0, ptr %5, align 8
  store i32 %1, ptr %6, align 4
  store ptr %2, ptr %7, align 8
  store i32 %3, ptr %8, align 4
  call void @llvm.lifetime.start.p0(i64 8, ptr %9) #8
  %11 = load ptr, ptr %7, align 8
  %12 = load i32, ptr %8, align 4
  %13 = call i32 @tvb_get_ntohl(ptr noundef %11, i32 noundef %12)
  %14 = zext i32 %13 to i64
  store i64 %14, ptr %9, align 8
  call void @llvm.lifetime.start.p0(i64 16, ptr %10) #8
  %15 = load i64, ptr %9, align 8
  %16 = add i64 %15, 946684800
  %17 = getelementptr inbounds nuw %struct.nstime_t, ptr %10, i32 0, i32 0
  store i64 %16, ptr %17, align 8
  %18 = getelementptr inbounds nuw %struct.nstime_t, ptr %10, i32 0, i32 1
  store i32 0, ptr %18, align 8
  %19 = load ptr, ptr %5, align 8
  %20 = load i32, ptr %6, align 4
  %21 = load ptr, ptr %7, align 8
  %22 = load i32, ptr %8, align 4
  %23 = call ptr @proto_tree_add_time(ptr noundef %19, i32 noundef %20, ptr noundef %21, i32 noundef %22, i32 noundef 4, ptr noundef %10)
  call void @llvm.lifetime.end.p0(i64 16, ptr %10) #8
  call void @llvm.lifetime.end.p0(i64 8, ptr %9) #8
  ret void
}

; Function Attrs: null_pointer_is_valid sspstrong uwtable
define internal zeroext i16 @decode_file_attribute(ptr noundef %0, ptr noundef %1, i32 noundef %2, i32 noundef %3) #1 {
  %5 = alloca ptr, align 8
  %6 = alloca ptr, align 8
  %7 = alloca i32, align 4
  %8 = alloca i32, align 4
  %9 = alloca i16, align 2
  store ptr %0, ptr %5, align 8
  store ptr %1, ptr %6, align 8
  store i32 %2, ptr %7, align 4
  store i32 %3, ptr %8, align 4
  call void @llvm.lifetime.start.p0(i64 2, ptr %9) #8
  %10 = load i32, ptr %8, align 4
  %11 = icmp ne i32 %10, 0
  br i1 %11, label %19, label %12

12:                                               ; preds = %4
  %13 = load ptr, ptr %5, align 8
  %14 = load ptr, ptr %6, align 8
  %15 = load i32, ptr %7, align 4
  %16 = load i32, ptr @hf_afp_file_attribute, align 4
  %17 = load i32, ptr @ett_afp_file_attribute, align 4
  %18 = call ptr @proto_tree_add_bitmask(ptr noundef %13, ptr noundef %14, i32 noundef %15, i32 noundef %16, i32 noundef %17, ptr noundef @decode_file_attribute.not_shared_attr, i32 noundef 0)
  br label %26

19:                                               ; preds = %4
  %20 = load ptr, ptr %5, align 8
  %21 = load ptr, ptr %6, align 8
  %22 = load i32, ptr %7, align 4
  %23 = load i32, ptr @hf_afp_file_attribute, align 4
  %24 = load i32, ptr @ett_afp_file_attribute, align 4
  %25 = call ptr @proto_tree_add_bitmask(ptr noundef %20, ptr noundef %21, i32 noundef %22, i32 noundef %23, i32 noundef %24, ptr noundef @decode_file_attribute.shared_attr, i32 noundef 0)
  br label %26

26:                                               ; preds = %19, %12
  %27 = load ptr, ptr %6, align 8
  %28 = load i32, ptr %7, align 4
  %29 = call zeroext i16 @tvb_get_ntohs(ptr noundef %27, i32 noundef %28)
  store i16 %29, ptr %9, align 2
  %30 = load i16, ptr %9, align 2
  call void @llvm.lifetime.end.p0(i64 2, ptr %9) #8
  ret i16 %30
}

; Function Attrs: null_pointer_is_valid sspstrong uwtable
define internal i32 @parse_file_bitmap(ptr noundef %0, ptr noundef %1, i32 noundef %2, i16 noundef zeroext %3, i32 noundef %4) #1 {
  %6 = alloca ptr, align 8
  %7 = alloca ptr, align 8
  %8 = alloca i32, align 4
  %9 = alloca i16, align 2
  %10 = alloca i32, align 4
  %11 = alloca i32, align 4
  %12 = alloca i32, align 4
  %13 = alloca i32, align 4
  %14 = alloca i32, align 4
  store ptr %0, ptr %6, align 8
  store ptr %1, ptr %7, align 8
  store i32 %2, ptr %8, align 4
  store i16 %3, ptr %9, align 2
  store i32 %4, ptr %10, align 4
  call void @llvm.lifetime.start.p0(i64 4, ptr %11) #8
  store i32 0, ptr %11, align 4
  call void @llvm.lifetime.start.p0(i64 4, ptr %12) #8
  %15 = load i32, ptr %8, align 4
  store i32 %15, ptr %12, align 4
  %16 = load i16, ptr %9, align 2
  %17 = zext i16 %16 to i32
  %18 = and i32 %17, 1
  %19 = icmp ne i32 %18, 0
  br i1 %19, label %20, label %28

20:                                               ; preds = %5
  %21 = load ptr, ptr %6, align 8
  %22 = load ptr, ptr %7, align 8
  %23 = load i32, ptr %8, align 4
  %24 = load i32, ptr %10, align 4
  %25 = call zeroext i16 @decode_file_attribute(ptr noundef %21, ptr noundef %22, i32 noundef %23, i32 noundef %24)
  %26 = load i32, ptr %8, align 4
  %27 = add i32 %26, 2
  store i32 %27, ptr %8, align 4
  br label %28

28:                                               ; preds = %20, %5
  %29 = load i16, ptr %9, align 2
  %30 = zext i16 %29 to i32
  %31 = and i32 %30, 2
  %32 = icmp ne i32 %31, 0
  br i1 %32, label %33, label %41

33:                                               ; preds = %28
  %34 = load ptr, ptr %6, align 8
  %35 = load i32, ptr @hf_afp_did, align 4
  %36 = load ptr, ptr %7, align 8
  %37 = load i32, ptr %8, align 4
  %38 = call ptr @proto_tree_add_item(ptr noundef %34, i32 noundef %35, ptr noundef %36, i32 noundef %37, i32 noundef 4, i32 noundef 0)
  %39 = load i32, ptr %8, align 4
  %40 = add i32 %39, 4
  store i32 %40, ptr %8, align 4
  br label %41

41:                                               ; preds = %33, %28
  %42 = load i16, ptr %9, align 2
  %43 = zext i16 %42 to i32
  %44 = and i32 %43, 4
  %45 = icmp ne i32 %44, 0
  br i1 %45, label %46, label %53

46:                                               ; preds = %41
  %47 = load ptr, ptr %6, align 8
  %48 = load i32, ptr @hf_afp_creation_date, align 4
  %49 = load ptr, ptr %7, align 8
  %50 = load i32, ptr %8, align 4
  call void @print_date(ptr noundef %47, i32 noundef %48, ptr noundef %49, i32 noundef %50)
  %51 = load i32, ptr %8, align 4
  %52 = add i32 %51, 4
  store i32 %52, ptr %8, align 4
  br label %53

53:                                               ; preds = %46, %41
  %54 = load i16, ptr %9, align 2
  %55 = zext i16 %54 to i32
  %56 = and i32 %55, 8
  %57 = icmp ne i32 %56, 0
  br i1 %57, label %58, label %65

58:                                               ; preds = %53
  %59 = load ptr, ptr %6, align 8
  %60 = load i32, ptr @hf_afp_modification_date, align 4
  %61 = load ptr, ptr %7, align 8
  %62 = load i32, ptr %8, align 4
  call void @print_date(ptr noundef %59, i32 noundef %60, ptr noundef %61, i32 noundef %62)
  %63 = load i32, ptr %8, align 4
  %64 = add i32 %63, 4
  store i32 %64, ptr %8, align 4
  br label %65

65:                                               ; preds = %58, %53
  %66 = load i16, ptr %9, align 2
  %67 = zext i16 %66 to i32
  %68 = and i32 %67, 16
  %69 = icmp ne i32 %68, 0
  br i1 %69, label %70, label %77

70:                                               ; preds = %65
  %71 = load ptr, ptr %6, align 8
  %72 = load i32, ptr @hf_afp_backup_date, align 4
  %73 = load ptr, ptr %7, align 8
  %74 = load i32, ptr %8, align 4
  call void @print_date(ptr noundef %71, i32 noundef %72, ptr noundef %73, i32 noundef %74)
  %75 = load i32, ptr %8, align 4
  %76 = add i32 %75, 4
  store i32 %76, ptr %8, align 4
  br label %77

77:                                               ; preds = %70, %65
  %78 = load i16, ptr %9, align 2
  %79 = zext i16 %78 to i32
  %80 = and i32 %79, 32
  %81 = icmp ne i32 %80, 0
  br i1 %81, label %82, label %90

82:                                               ; preds = %77
  %83 = load ptr, ptr %6, align 8
  %84 = load i32, ptr @hf_afp_finder_info, align 4
  %85 = load ptr, ptr %7, align 8
  %86 = load i32, ptr %8, align 4
  %87 = call ptr @proto_tree_add_item(ptr noundef %83, i32 noundef %84, ptr noundef %85, i32 noundef %86, i32 noundef 32, i32 noundef 0)
  %88 = load i32, ptr %8, align 4
  %89 = add i32 %88, 32
  store i32 %89, ptr %8, align 4
  br label %90

90:                                               ; preds = %82, %77
  %91 = load i16, ptr %9, align 2
  %92 = zext i16 %91 to i32
  %93 = and i32 %92, 64
  %94 = icmp ne i32 %93, 0
  br i1 %94, label %95, label %112

95:                                               ; preds = %90
  call void @llvm.lifetime.start.p0(i64 4, ptr %13) #8
  %96 = load ptr, ptr %6, align 8
  %97 = load ptr, ptr %7, align 8
  %98 = load i32, ptr %8, align 4
  %99 = load i32, ptr %12, align 4
  %100 = call i32 @parse_long_filename(ptr noundef %96, ptr noundef %97, i32 noundef %98, i32 noundef %99)
  store i32 %100, ptr %13, align 4
  %101 = load i32, ptr %13, align 4
  %102 = load i32, ptr %11, align 4
  %103 = icmp sgt i32 %101, %102
  br i1 %103, label %104, label %106

104:                                              ; preds = %95
  %105 = load i32, ptr %13, align 4
  br label %108

106:                                              ; preds = %95
  %107 = load i32, ptr %11, align 4
  br label %108

108:                                              ; preds = %106, %104
  %109 = phi i32 [ %105, %104 ], [ %107, %106 ]
  store i32 %109, ptr %11, align 4
  %110 = load i32, ptr %8, align 4
  %111 = add i32 %110, 2
  store i32 %111, ptr %8, align 4
  call void @llvm.lifetime.end.p0(i64 4, ptr %13) #8
  br label %112

112:                                              ; preds = %108, %90
  %113 = load i16, ptr %9, align 2
  %114 = zext i16 %113 to i32
  %115 = and i32 %114, 128
  %116 = icmp ne i32 %115, 0
  br i1 %116, label %117, label %125

117:                                              ; preds = %112
  %118 = load ptr, ptr %6, align 8
  %119 = load i32, ptr @hf_afp_short_name_offset, align 4
  %120 = load ptr, ptr %7, align 8
  %121 = load i32, ptr %8, align 4
  %122 = call ptr @proto_tree_add_item(ptr noundef %118, i32 noundef %119, ptr noundef %120, i32 noundef %121, i32 noundef 2, i32 noundef 0)
  %123 = load i32, ptr %8, align 4
  %124 = add i32 %123, 2
  store i32 %124, ptr %8, align 4
  br label %125

125:                                              ; preds = %117, %112
  %126 = load i16, ptr %9, align 2
  %127 = zext i16 %126 to i32
  %128 = and i32 %127, 256
  %129 = icmp ne i32 %128, 0
  br i1 %129, label %130, label %138

130:                                              ; preds = %125
  %131 = load ptr, ptr %6, align 8
  %132 = load i32, ptr @hf_afp_file_id, align 4
  %133 = load ptr, ptr %7, align 8
  %134 = load i32, ptr %8, align 4
  %135 = call ptr @proto_tree_add_item(ptr noundef %131, i32 noundef %132, ptr noundef %133, i32 noundef %134, i32 noundef 4, i32 noundef 0)
  %136 = load i32, ptr %8, align 4
  %137 = add i32 %136, 4
  store i32 %137, ptr %8, align 4
  br label %138

138:                                              ; preds = %130, %125
  %139 = load i16, ptr %9, align 2
  %140 = zext i16 %139 to i32
  %141 = and i32 %140, 512
  %142 = icmp ne i32 %141, 0
  br i1 %142, label %143, label %151

143:                                              ; preds = %138
  %144 = load ptr, ptr %6, align 8
  %145 = load i32, ptr @hf_afp_file_DataForkLen, align 4
  %146 = load ptr, ptr %7, align 8
  %147 = load i32, ptr %8, align 4
  %148 = call ptr @proto_tree_add_item(ptr noundef %144, i32 noundef %145, ptr noundef %146, i32 noundef %147, i32 noundef 4, i32 noundef 0)
  %149 = load i32, ptr %8, align 4
  %150 = add i32 %149, 4
  store i32 %150, ptr %8, align 4
  br label %151

151:                                              ; preds = %143, %138
  %152 = load i16, ptr %9, align 2
  %153 = zext i16 %152 to i32
  %154 = and i32 %153, 1024
  %155 = icmp ne i32 %154, 0
  br i1 %155, label %156, label %164

156:                                              ; preds = %151
  %157 = load ptr, ptr %6, align 8
  %158 = load i32, ptr @hf_afp_file_RsrcForkLen, align 4
  %159 = load ptr, ptr %7, align 8
  %160 = load i32, ptr %8, align 4
  %161 = call ptr @proto_tree_add_item(ptr noundef %157, i32 noundef %158, ptr noundef %159, i32 noundef %160, i32 noundef 4, i32 noundef 0)
  %162 = load i32, ptr %8, align 4
  %163 = add i32 %162, 4
  store i32 %163, ptr %8, align 4
  br label %164

164:                                              ; preds = %156, %151
  %165 = load i16, ptr %9, align 2
  %166 = zext i16 %165 to i32
  %167 = and i32 %166, 2048
  %168 = icmp ne i32 %167, 0
  br i1 %168, label %169, label %177

169:                                              ; preds = %164
  %170 = load ptr, ptr %6, align 8
  %171 = load i32, ptr @hf_afp_file_ExtDataForkLen, align 4
  %172 = load ptr, ptr %7, align 8
  %173 = load i32, ptr %8, align 4
  %174 = call ptr @proto_tree_add_item(ptr noundef %170, i32 noundef %171, ptr noundef %172, i32 noundef %173, i32 noundef 8, i32 noundef 0)
  %175 = load i32, ptr %8, align 4
  %176 = add i32 %175, 8
  store i32 %176, ptr %8, align 4
  br label %177

177:                                              ; preds = %169, %164
  %178 = load i16, ptr %9, align 2
  %179 = zext i16 %178 to i32
  %180 = and i32 %179, 4096
  %181 = icmp ne i32 %180, 0
  br i1 %181, label %182, label %185

182:                                              ; preds = %177
  %183 = load i32, ptr %8, align 4
  %184 = add i32 %183, 2
  store i32 %184, ptr %8, align 4
  br label %185

185:                                              ; preds = %182, %177
  %186 = load i16, ptr %9, align 2
  %187 = zext i16 %186 to i32
  %188 = and i32 %187, 8192
  %189 = icmp ne i32 %188, 0
  br i1 %189, label %190, label %207

190:                                              ; preds = %185
  call void @llvm.lifetime.start.p0(i64 4, ptr %14) #8
  %191 = load ptr, ptr %6, align 8
  %192 = load ptr, ptr %7, align 8
  %193 = load i32, ptr %8, align 4
  %194 = load i32, ptr %12, align 4
  %195 = call i32 @parse_UTF8_filename(ptr noundef %191, ptr noundef %192, i32 noundef %193, i32 noundef %194)
  store i32 %195, ptr %14, align 4
  %196 = load i32, ptr %14, align 4
  %197 = load i32, ptr %11, align 4
  %198 = icmp sgt i32 %196, %197
  br i1 %198, label %199, label %201

199:                                              ; preds = %190
  %200 = load i32, ptr %14, align 4
  br label %203

201:                                              ; preds = %190
  %202 = load i32, ptr %11, align 4
  br label %203

203:                                              ; preds = %201, %199
  %204 = phi i32 [ %200, %199 ], [ %202, %201 ]
  store i32 %204, ptr %11, align 4
  %205 = load i32, ptr %8, align 4
  %206 = add i32 %205, 6
  store i32 %206, ptr %8, align 4
  call void @llvm.lifetime.end.p0(i64 4, ptr %14) #8
  br label %207

207:                                              ; preds = %203, %185
  %208 = load i16, ptr %9, align 2
  %209 = zext i16 %208 to i32
  %210 = and i32 %209, 16384
  %211 = icmp ne i32 %210, 0
  br i1 %211, label %212, label %220

212:                                              ; preds = %207
  %213 = load ptr, ptr %6, align 8
  %214 = load i32, ptr @hf_afp_file_ExtRsrcForkLen, align 4
  %215 = load ptr, ptr %7, align 8
  %216 = load i32, ptr %8, align 4
  %217 = call ptr @proto_tree_add_item(ptr noundef %213, i32 noundef %214, ptr noundef %215, i32 noundef %216, i32 noundef 8, i32 noundef 0)
  %218 = load i32, ptr %8, align 4
  %219 = add i32 %218, 8
  store i32 %219, ptr %8, align 4
  br label %220

220:                                              ; preds = %212, %207
  %221 = load i16, ptr %9, align 2
  %222 = zext i16 %221 to i32
  %223 = and i32 %222, 32768
  %224 = icmp ne i32 %223, 0
  br i1 %224, label %225, label %231

225:                                              ; preds = %220
  %226 = load ptr, ptr %6, align 8
  %227 = load ptr, ptr %7, align 8
  %228 = load i32, ptr %8, align 4
  call void @decode_unix_privs(ptr noundef %226, ptr noundef %227, i32 noundef %228)
  %229 = load i32, ptr %8, align 4
  %230 = add i32 %229, 16
  store i32 %230, ptr %8, align 4
  br label %231

231:                                              ; preds = %225, %220
  %232 = load i32, ptr %11, align 4
  %233 = icmp ne i32 %232, 0
  br i1 %233, label %234, label %236

234:                                              ; preds = %231
  %235 = load i32, ptr %11, align 4
  br label %238

236:                                              ; preds = %231
  %237 = load i32, ptr %8, align 4
  br label %238

238:                                              ; preds = %236, %234
  %239 = phi i32 [ %235, %234 ], [ %237, %236 ]
  call void @llvm.lifetime.end.p0(i64 4, ptr %12) #8
  call void @llvm.lifetime.end.p0(i64 4, ptr %11) #8
  ret i32 %239
}