; Function Attrs: null_pointer_is_valid sspstrong uwtable
define internal fastcc i32 @parse_file_bitmap(ptr noundef %0, ptr noundef %1, i32 noundef %2, i16 noundef zeroext %3, i32 noundef range(i32 0, 2) %4) unnamed_addr #1 {
  %6 = alloca %struct.nstime_t, align 8
  %7 = alloca %struct.nstime_t, align 8
  %8 = alloca %struct.nstime_t, align 8
  %9 = zext i16 %3 to i32
  %10 = and i32 %9, 1
  %.not = icmp eq i32 %10, 0
  br i1 %.not, label %17, label %11

11:                                               ; preds = %5
  %.not.i = icmp eq i32 %4, 0
  %12 = load i32, ptr @hf_afp_file_attribute, align 4
  %13 = load i32, ptr @ett_afp_file_attribute, align 4
  %decode_file_attribute.not_shared_attr.decode_file_attribute.shared_attr.i = select i1 %.not.i, ptr @decode_file_attribute.not_shared_attr, ptr @decode_file_attribute.shared_attr
  %14 = tail call ptr @proto_tree_add_bitmask(ptr noundef %0, ptr noundef %1, i32 noundef %2, i32 noundef %12, i32 noundef %13, ptr noundef nonnull %decode_file_attribute.not_shared_attr.decode_file_attribute.shared_attr.i, i32 noundef 0)
  %15 = tail call zeroext i16 @tvb_get_ntohs(ptr noundef %1, i32 noundef %2)
  %16 = add i32 %2, 2
  br label %17

17:                                               ; preds = %11, %5
  %.0 = phi i32 [ %16, %11 ], [ %2, %5 ]
  %18 = and i32 %9, 2
  %.not93 = icmp eq i32 %18, 0
  br i1 %.not93, label %23, label %19

19:                                               ; preds = %17
  %20 = load i32, ptr @hf_afp_did, align 4
  %21 = tail call ptr @proto_tree_add_item(ptr noundef %0, i32 noundef %20, ptr noundef %1, i32 noundef %.0, i32 noundef 4, i32 noundef 0)
  %22 = add i32 %.0, 4
  br label %23

23:                                               ; preds = %19, %17
  %.1 = phi i32 [ %22, %19 ], [ %.0, %17 ]
  %24 = and i32 %9, 4
  %.not94 = icmp eq i32 %24, 0
  br i1 %.not94, label %33, label %25

25:                                               ; preds = %23
  %26 = load i32, ptr @hf_afp_creation_date, align 4
  %27 = tail call i32 @tvb_get_ntohl(ptr noundef %1, i32 noundef %.1)
  %28 = zext i32 %27 to i64
  call void @llvm.lifetime.start.p0(i64 16, ptr nonnull %8) #8
  %29 = add nuw nsw i64 %28, 946684800
  store i64 %29, ptr %8, align 8
  %30 = getelementptr inbounds nuw i8, ptr %8, i64 8
  store i32 0, ptr %30, align 8
  %31 = call ptr @proto_tree_add_time(ptr noundef %0, i32 noundef %26, ptr noundef %1, i32 noundef %.1, i32 noundef 4, ptr noundef nonnull %8)
  call void @llvm.lifetime.end.p0(i64 16, ptr nonnull %8) #8
  %32 = add i32 %.1, 4
  br label %33

33:                                               ; preds = %25, %23
  %.2 = phi i32 [ %32, %25 ], [ %.1, %23 ]
  %34 = and i32 %9, 8
  %.not95 = icmp eq i32 %34, 0
  br i1 %.not95, label %43, label %35

35:                                               ; preds = %33
  %36 = load i32, ptr @hf_afp_modification_date, align 4
  %37 = call i32 @tvb_get_ntohl(ptr noundef %1, i32 noundef %.2)
  %38 = zext i32 %37 to i64
  call void @llvm.lifetime.start.p0(i64 16, ptr nonnull %7) #8
  %39 = add nuw nsw i64 %38, 946684800
  store i64 %39, ptr %7, align 8
  %40 = getelementptr inbounds nuw i8, ptr %7, i64 8
  store i32 0, ptr %40, align 8
  %41 = call ptr @proto_tree_add_time(ptr noundef %0, i32 noundef %36, ptr noundef %1, i32 noundef %.2, i32 noundef 4, ptr noundef nonnull %7)
  call void @llvm.lifetime.end.p0(i64 16, ptr nonnull %7) #8
  %42 = add i32 %.2, 4
  br label %43

43:                                               ; preds = %35, %33
  %.3 = phi i32 [ %42, %35 ], [ %.2, %33 ]
  %44 = and i32 %9, 16
  %.not96 = icmp eq i32 %44, 0
  br i1 %.not96, label %53, label %45

45:                                               ; preds = %43
  %46 = load i32, ptr @hf_afp_backup_date, align 4
  %47 = call i32 @tvb_get_ntohl(ptr noundef %1, i32 noundef %.3)
  %48 = zext i32 %47 to i64
  call void @llvm.lifetime.start.p0(i64 16, ptr nonnull %6) #8
  %49 = add nuw nsw i64 %48, 946684800
  store i64 %49, ptr %6, align 8
  %50 = getelementptr inbounds nuw i8, ptr %6, i64 8
  store i32 0, ptr %50, align 8
  %51 = call ptr @proto_tree_add_time(ptr noundef %0, i32 noundef %46, ptr noundef %1, i32 noundef %.3, i32 noundef 4, ptr noundef nonnull %6)
  call void @llvm.lifetime.end.p0(i64 16, ptr nonnull %6) #8
  %52 = add i32 %.3, 4
  br label %53

53:                                               ; preds = %45, %43
  %.4 = phi i32 [ %52, %45 ], [ %.3, %43 ]
  %54 = and i32 %9, 32
  %.not97 = icmp eq i32 %54, 0
  br i1 %.not97, label %59, label %55

55:                                               ; preds = %53
  %56 = load i32, ptr @hf_afp_finder_info, align 4
  %57 = call ptr @proto_tree_add_item(ptr noundef %0, i32 noundef %56, ptr noundef %1, i32 noundef %.4, i32 noundef 32, i32 noundef 0)
  %58 = add i32 %.4, 32
  br label %59

59:                                               ; preds = %55, %53
  %.5 = phi i32 [ %58, %55 ], [ %.4, %53 ]
  %60 = and i32 %9, 64
  %.not98 = icmp eq i32 %60, 0
  br i1 %.not98, label %65, label %61

61:                                               ; preds = %59
  %62 = call fastcc i32 @parse_long_filename(ptr noundef %0, ptr noundef %1, i32 noundef %.5, i32 noundef %2)
  %63 = call i32 @llvm.smax.i32(i32 %62, i32 0)
  %64 = add i32 %.5, 2
  br label %65

65:                                               ; preds = %61, %59
  %.091 = phi i32 [ %63, %61 ], [ 0, %59 ]
  %.6 = phi i32 [ %64, %61 ], [ %.5, %59 ]
  %66 = and i32 %9, 128
  %.not99 = icmp eq i32 %66, 0
  br i1 %.not99, label %71, label %67

67:                                               ; preds = %65
  %68 = load i32, ptr @hf_afp_short_name_offset, align 4
  %69 = call ptr @proto_tree_add_item(ptr noundef %0, i32 noundef %68, ptr noundef %1, i32 noundef %.6, i32 noundef 2, i32 noundef 0)
  %70 = add i32 %.6, 2
  br label %71

71:                                               ; preds = %67, %65
  %.7 = phi i32 [ %70, %67 ], [ %.6, %65 ]
  %72 = and i32 %9, 256
  %.not100 = icmp eq i32 %72, 0
  br i1 %.not100, label %77, label %73

73:                                               ; preds = %71
  %74 = load i32, ptr @hf_afp_file_id, align 4
  %75 = call ptr @proto_tree_add_item(ptr noundef %0, i32 noundef %74, ptr noundef %1, i32 noundef %.7, i32 noundef 4, i32 noundef 0)
  %76 = add i32 %.7, 4
  br label %77

77:                                               ; preds = %73, %71
  %.8 = phi i32 [ %76, %73 ], [ %.7, %71 ]
  %78 = and i32 %9, 512
  %.not101 = icmp eq i32 %78, 0
  br i1 %.not101, label %83, label %79

79:                                               ; preds = %77
  %80 = load i32, ptr @hf_afp_file_DataForkLen, align 4
  %81 = call ptr @proto_tree_add_item(ptr noundef %0, i32 noundef %80, ptr noundef %1, i32 noundef %.8, i32 noundef 4, i32 noundef 0)
  %82 = add i32 %.8, 4
  br label %83

83:                                               ; preds = %79, %77
  %.9 = phi i32 [ %82, %79 ], [ %.8, %77 ]
  %84 = and i32 %9, 1024
  %.not102 = icmp eq i32 %84, 0
  br i1 %.not102, label %89, label %85

85:                                               ; preds = %83
  %86 = load i32, ptr @hf_afp_file_RsrcForkLen, align 4
  %87 = call ptr @proto_tree_add_item(ptr noundef %0, i32 noundef %86, ptr noundef %1, i32 noundef %.9, i32 noundef 4, i32 noundef 0)
  %88 = add i32 %.9, 4
  br label %89

89:                                               ; preds = %85, %83
  %.10 = phi i32 [ %88, %85 ], [ %.9, %83 ]
  %90 = and i32 %9, 2048
  %.not103 = icmp eq i32 %90, 0
  br i1 %.not103, label %95, label %91

91:                                               ; preds = %89
  %92 = load i32, ptr @hf_afp_file_ExtDataForkLen, align 4
  %93 = call ptr @proto_tree_add_item(ptr noundef %0, i32 noundef %92, ptr noundef %1, i32 noundef %.10, i32 noundef 8, i32 noundef 0)
  %94 = add i32 %.10, 8
  br label %95

95:                                               ; preds = %91, %89
  %.11 = phi i32 [ %94, %91 ], [ %.10, %89 ]
  %96 = lshr i32 %9, 11
  %97 = and i32 %96, 2
  %spec.select = add i32 %.11, %97
  %98 = and i32 %9, 8192
  %.not105 = icmp eq i32 %98, 0
  br i1 %.not105, label %103, label %99

99:                                               ; preds = %95
  %100 = call fastcc i32 @parse_UTF8_filename(ptr noundef %0, ptr noundef %1, i32 noundef %spec.select, i32 noundef %2)
  %101 = call i32 @llvm.smax.i32(i32 %100, i32 %.091)
  %102 = add i32 %spec.select, 6
  br label %103

103:                                              ; preds = %99, %95
  %.192 = phi i32 [ %101, %99 ], [ %.091, %95 ]
  %.13 = phi i32 [ %102, %99 ], [ %spec.select, %95 ]
  %104 = and i32 %9, 16384
  %.not106 = icmp eq i32 %104, 0
  br i1 %.not106, label %109, label %105

105:                                              ; preds = %103
  %106 = load i32, ptr @hf_afp_file_ExtRsrcForkLen, align 4
  %107 = call ptr @proto_tree_add_item(ptr noundef %0, i32 noundef %106, ptr noundef %1, i32 noundef %.13, i32 noundef 8, i32 noundef 0)
  %108 = add i32 %.13, 8
  br label %109

109:                                              ; preds = %105, %103
  %.14 = phi i32 [ %108, %105 ], [ %.13, %103 ]
  %.not107 = icmp sgt i16 %3, -1
  br i1 %.not107, label %112, label %110

110:                                              ; preds = %109
  call fastcc void @decode_unix_privs(ptr noundef %0, ptr noundef %1, i32 noundef %.14)
  %111 = add i32 %.14, 16
  br label %112

112:                                              ; preds = %110, %109
  %.15 = phi i32 [ %111, %110 ], [ %.14, %109 ]
  %.not108 = icmp eq i32 %.192, 0
  %113 = select i1 %.not108, i32 %.15, i32 %.192
  ret i32 %113
}